target datalayout = "e-m:e-p270:32:32-p271:32:32-p272:64:64-i64:64-i128:128-f80:128-n8:16:32:64-S128"
target triple = "x86_64-pc-linux-gnu"

@.str = private unnamed_addr constant [5 x i8] c"none\00", align 1
@.str.1 = private unnamed_addr constant [5 x i8] c"gzip\00", align 1
@.str.2 = private unnamed_addr constant [4 x i8] c"lz4\00", align 1
@.str.3 = private unnamed_addr constant [5 x i8] c"zstd\00", align 1

; Function Attrs: nounwind uwtable
define zeroext i1 @parse_compress_algorithm(ptr noundef %0, ptr noundef %1) #0 {
  %3 = alloca i1, align 1
  %4 = alloca ptr, align 8
  %5 = alloca ptr, align 8
  store ptr %0, ptr %4, align 8
  store ptr %1, ptr %5, align 8
  %6 = load ptr, ptr %4, align 8
  %7 = call i32 @strcmp(ptr noundef %6, ptr noundef @.str) #6
  %8 = icmp eq i32 %7, 0
  br i1 %8, label %9, label %11

9:                                                ; preds = %2
  %10 = load ptr, ptr %5, align 8
  store i32 0, ptr %10, align 4
  br label %33

11:                                               ; preds = %2
  %12 = load ptr, ptr %4, align 8
  %13 = call i32 @strcmp(ptr noundef %12, ptr noundef @.str.1) #6
  %14 = icmp eq i32 %13, 0
  br i1 %14, label %15, label %17

15:                                               ; preds = %11
  %16 = load ptr, ptr %5, align 8
  store i32 1, ptr %16, align 4
  br label %32

17:                                               ; preds = %11
  %18 = load ptr, ptr %4, align 8
  %19 = call i32 @strcmp(ptr noundef %18, ptr noundef @.str.2) #6
  %20 = icmp eq i32 %19, 0
  br i1 %20, label %21, label %23

21:                                               ; preds = %17
  %22 = load ptr, ptr %5, align 8
  store i32 2, ptr %22, align 4
  br label %31

23:                                               ; preds = %17
  %24 = load ptr, ptr %4, align 8
  %25 = call i32 @strcmp(ptr noundef %24, ptr noundef @.str.3) #6
  %26 = icmp eq i32 %25, 0
  br i1 %26, label %27, label %29

27:                                               ; preds = %23
  %28 = load ptr, ptr %5, align 8
  store i32 3, ptr %28, align 4
  br label %30

29:                                               ; preds = %23
  store i1 false, ptr %3, align 1
  br label %34

30:                                               ; preds = %27
  br label %31

31:                                               ; preds = %30, %21
  br label %32

32:                                               ; preds = %31, %15
  br label %33

33:                                               ; preds = %32, %9
  store i1 true, ptr %3, align 1
  br label %34

34:                                               ; preds = %33, %29
  %35 = load i1, ptr %3, align 1
  ret i1 %35
}