; Function Attrs: mustprogress nofree nounwind willreturn memory(argmem: readwrite) uwtable
define noundef zeroext i1 @parse_compress_algorithm(ptr noundef readonly captures(none) %0, ptr noundef writeonly captures(none) %1) local_unnamed_addr #0 {
  %3 = tail call i32 @strcmp(ptr noundef nonnull dereferenceable(1) %0, ptr noundef nonnull dereferenceable(5) @.str) #8
  %4 = icmp eq i32 %3, 0
  br i1 %4, label %.sink.split, label %5

5:                                                ; preds = %2
  %6 = tail call i32 @strcmp(ptr noundef nonnull dereferenceable(1) %0, ptr noundef nonnull dereferenceable(5) @.str.1) #8
  %7 = icmp eq i32 %6, 0
  br i1 %7, label %.sink.split, label %8

8:                                                ; preds = %5
  %9 = tail call i32 @strcmp(ptr noundef nonnull dereferenceable(1) %0, ptr noundef nonnull dereferenceable(4) @.str.2) #8
  %10 = icmp eq i32 %9, 0
  br i1 %10, label %.sink.split, label %11

11:                                               ; preds = %8
  %12 = tail call i32 @strcmp(ptr noundef nonnull dereferenceable(1) %0, ptr noundef nonnull dereferenceable(5) @.str.3) #8
  %13 = icmp eq i32 %12, 0
  br i1 %13, label %.sink.split, label %14

.sink.split:                                      ; preds = %11, %8, %5, %2
  %.sink = phi i32 [ 0, %2 ], [ 1, %5 ], [ 2, %8 ], [ 3, %11 ]
  store i32 %.sink, ptr %1, align 4
  br label %14

14:                                               ; preds = %.sink.split, %11
  %.0 = phi i1 [ false, %11 ], [ true, %.sink.split ]
  ret i1 %.0
}